target datalayout = "e-m:e-p270:32:32-p271:32:32-p272:64:64-i64:64-i128:128-f80:128-n8:16:32:64-S128"
target triple = "x86_64-unknown-linux-gnu"

%struct.QemuMutex = type { %union.pthread_mutex_t, i8 }
%union.pthread_mutex_t = type { %struct.__pthread_mutex_s }
%struct.__pthread_mutex_s = type { i32, i32, i32, i32, i32, i16, i16, %struct.__pthread_internal_list }
%struct.__pthread_internal_list = type { ptr, ptr }
%struct.MigrationIncomingState = type { ptr, [2 x ptr], ptr, ptr, %struct.QemuSemaphore, %struct.QemuEvent, %struct.AnnounceTimer, i64, i8, %struct.QemuThread, i8, i8, %struct.QemuThread, i32, i32, ptr, %struct.QemuMutex, ptr, i32, ptr, %struct.QemuSemaphore, %struct.QemuThread, i32, %struct.QemuMutex, ptr, ptr, ptr, ptr, i32, ptr, ptr, %struct.QemuSemaphore, ptr, %struct.QemuSemaphore, %struct.QemuSemaphore, %struct.QemuSemaphore, ptr, ptr, i32, %struct.QemuMutex, %struct.QemuCond, i32 }
%struct.QemuEvent = type { i32, i8 }
%struct.AnnounceTimer = type { ptr, %struct.AnnounceParameters, i32, i32 }
%struct.AnnounceParameters = type { i64, i64, i64, i64, i8, ptr, ptr }
%struct.QemuThread = type { i64 }
%struct.QemuSemaphore = type { %struct.QemuMutex, %struct.QemuCond, i32 }
%struct.QemuCond = type { %union.pthread_cond_t, i8 }
%union.pthread_cond_t = type { %struct.__pthread_cond_s }
%struct.__pthread_cond_s = type { %union.__atomic_wide_counter, %union.__atomic_wide_counter, [2 x i32], [2 x i32], i32, i32, [2 x i32] }
%union.__atomic_wide_counter = type { i64 }

; Function Attrs: nounwind sspstrong uwtable
define dso_local void @postcopy_thread_create(ptr noundef %mis, ptr noundef %thread, ptr noundef %name, ptr noundef %fn, i32 noundef %joinable) #0 {
entry:
  %mis.addr = alloca ptr, align 8
  %thread.addr = alloca ptr, align 8
  %name.addr = alloca ptr, align 8
  %fn.addr = alloca ptr, align 8
  %joinable.addr = alloca i32, align 4
  store ptr %mis, ptr %mis.addr, align 8
  store ptr %thread, ptr %thread.addr, align 8
  store ptr %name, ptr %name.addr, align 8
  store ptr %fn, ptr %fn.addr, align 8
  store i32 %joinable, ptr %joinable.addr, align 4
  %0 = load ptr, ptr %mis.addr, align 8
  %thread_sync_sem = getelementptr inbounds %struct.MigrationIncomingState, ptr %0, i32 0, i32 4
  call void @qemu_sem_init(ptr noundef %thread_sync_sem, i32 noundef 0)
  %1 = load ptr, ptr %thread.addr, align 8
  %2 = load ptr, ptr %name.addr, align 8
  %3 = load ptr, ptr %fn.addr, align 8
  %4 = load ptr, ptr %mis.addr, align 8
  %5 = load i32, ptr %joinable.addr, align 4
  call void @qemu_thread_create(ptr noundef %1, ptr noundef %2, ptr noundef %3, ptr noundef %4, i32 noundef %5)
  %6 = load ptr, ptr %mis.addr, align 8
  %thread_sync_sem1 = getelementptr inbounds %struct.MigrationIncomingState, ptr %6, i32 0, i32 4
  call void @qemu_sem_wait(ptr noundef %thread_sync_sem1)
  %7 = load ptr, ptr %mis.addr, align 8
  %thread_sync_sem2 = getelementptr inbounds %struct.MigrationIncomingState, ptr %7, i32 0, i32 4
  call void @qemu_sem_destroy(ptr noundef %thread_sync_sem2)
  ret void
}