; Function Attrs: nounwind sspstrong uwtable
define dso_local void @postcopy_thread_create(ptr noundef %mis, ptr noundef %thread, ptr noundef %name, ptr noundef %fn, i32 noundef %joinable) local_unnamed_addr #0 {
entry:
  %thread_sync_sem = getelementptr inbounds nuw i8, ptr %mis, i64 40
  tail call void @qemu_sem_init(ptr noundef nonnull %thread_sync_sem, i32 noundef 0) #16
  tail call void @qemu_thread_create(ptr noundef %thread, ptr noundef %name, ptr noundef %fn, ptr noundef %mis, i32 noundef %joinable) #16
  tail call void @qemu_sem_wait(ptr noundef nonnull %thread_sync_sem) #16
  tail call void @qemu_sem_destroy(ptr noundef nonnull %thread_sync_sem) #16
  ret void
}